; Function Attrs: nounwind uwtable
define dso_local ptr @CreateEmptyBlockRefTable() local_unnamed_addr #0 {
  %1 = tail call ptr @palloc(i64 noundef 16) #14
  %2 = load ptr, ptr @CurrentMemoryContext, align 8
  %3 = getelementptr inbounds nuw i8, ptr %1, i64 8
  store ptr %2, ptr %3, align 8
  %4 = tail call ptr @MemoryContextAllocZero(ptr noundef %2, i64 noundef 48) #14
  %5 = getelementptr inbounds nuw i8, ptr %4, i64 32
  store ptr %2, ptr %5, align 8
  %6 = getelementptr inbounds nuw i8, ptr %4, i64 40
  store ptr null, ptr %6, align 8
  %7 = tail call ptr @MemoryContextAllocExtended(ptr noundef %2, i64 noundef 458752, i32 noundef 5) #14
  %8 = getelementptr inbounds nuw i8, ptr %4, i64 24
  store ptr %7, ptr %8, align 8
  store i64 8192, ptr %4, align 8
  %9 = getelementptr inbounds nuw i8, ptr %4, i64 12
  store i32 8191, ptr %9, align 4
  %10 = getelementptr inbounds nuw i8, ptr %4, i64 16
  store i32 7372, ptr %10, align 8
  store ptr %4, ptr %1, align 8
  ret ptr %1
}